; Function Attrs: mustprogress uwtable
define void @_ZN3net11QuicSession39InsertLocallyClosedStreamsHighestOffsetEjm(ptr noundef nonnull align 8 dereferenceable(2044) %0, i32 noundef %1, i64 noundef %2) local_unnamed_addr #0 align 2 {
  %4 = alloca i32, align 4
  store i32 %1, ptr %4, align 4, !tbaa !230
  %5 = getelementptr inbounds nuw i8, ptr %0, i64 8
  %6 = call noundef nonnull align 8 dereferenceable(8) ptr @_ZNSt3mapIjmSt4lessIjESaISt4pairIKjmEEEixERS3_(ptr noundef nonnull align 8 dereferenceable(48) %5, ptr noundef nonnull align 4 dereferenceable(4) %4)
  store i64 %2, ptr %6, align 8, !tbaa !266
  %7 = load i32, ptr %4, align 4, !tbaa !230
  %8 = getelementptr inbounds nuw i8, ptr %0, i64 936
  %9 = load i32, ptr %8, align 8, !tbaa !211
  %10 = xor i32 %9, %7
  %11 = and i32 %10, 1
  %.not = icmp eq i32 %11, 0
  br i1 %.not, label %16, label %12

12:                                               ; preds = %3
  %13 = getelementptr inbounds nuw i8, ptr %0, i64 1928
  %14 = load i64, ptr %13, align 8, !tbaa !270
  %15 = add i64 %14, 1
  store i64 %15, ptr %13, align 8, !tbaa !270
  br label %16

16:                                               ; preds = %12, %3
  ret void
}